target datalayout = "e-m:e-p270:32:32-p271:32:32-p272:64:64-i64:64-i128:128-f80:128-n8:16:32:64-S128"
target triple = "x86_64-pc-linux-gnu"

%struct.SDL_AtomicInt = type { i32 }
%struct.SDL_Window = type { i32, ptr, ptr, i32, i32, i32, i32, i32, i32, i32, i32, float, float, i32, i32, i64, i64, float, i8, i8, i32, i32, %struct.SDL_Rect, %struct.SDL_Rect, %struct.SDL_Rect, i8, i8, i8, %struct.SDL_DisplayMode, %struct.SDL_DisplayMode, %struct.SDL_HDROutputProperties, float, ptr, i8, i8, i8, i8, i8, i8, i8, i8, i8, i32, i32, i32, i32, %struct.SDL_Rect, i32, i8, %struct.SDL_Rect, i32, %struct.SDL_Rect, ptr, ptr, i32, float, i32, i32, ptr, ptr, ptr, ptr, ptr, ptr, ptr, ptr, ptr }
%struct.SDL_DisplayMode = type { i32, i32, i32, i32, float, float, i32, i32, ptr }
%struct.SDL_HDROutputProperties = type { float, float }
%struct.SDL_Rect = type { i32, i32, i32, i32 }
%struct.SDL_VideoDevice = type { ptr, ptr, ptr, ptr, ptr, ptr, ptr, ptr, ptr, ptr, ptr, ptr, ptr, ptr, ptr, ptr, ptr, ptr, ptr, ptr, ptr, ptr, ptr, ptr, ptr, ptr, ptr, ptr, ptr, ptr, ptr, ptr, ptr, ptr, ptr, ptr, ptr, ptr, ptr, ptr, ptr, ptr, ptr, ptr, ptr, ptr, ptr, ptr, ptr, ptr, ptr, ptr, ptr, ptr, ptr, ptr, ptr, ptr, ptr, ptr, ptr, ptr, ptr, ptr, ptr, ptr, ptr, ptr, ptr, ptr, ptr, ptr, ptr, ptr, ptr, ptr, ptr, ptr, ptr, ptr, ptr, ptr, ptr, ptr, ptr, ptr, ptr, ptr, ptr, ptr, ptr, ptr, ptr, ptr, ptr, ptr, ptr, i64, i8, i8, i8, ptr, i32, ptr, %struct.SDL_Rect, ptr, ptr, i32, ptr, ptr, ptr, ptr, i64, ptr, i8, i32, i32, %struct.anon, ptr, ptr, ptr, ptr, ptr, ptr, %struct.SDL_AtomicInt, %struct.SDL_AtomicInt, i8, %struct.anon.0, ptr, ptr, ptr, ptr, ptr }
%struct.anon = type { i32, i32, i32, i32, i32, i32, i32, i32, i32, i32, i32, i32, i32, i32, i32, i32, i32, i32, i32, i32, i32, i32, i32, i32, i32, i32, i32, i32, i32, [256 x i8], ptr }
%struct.anon.0 = type { ptr, ptr, i32, [256 x i8], ptr }
%struct.SDL_VideoDisplay = type { i32, ptr, i32, i32, ptr, %struct.SDL_DisplayMode, ptr, i32, i32, float, %struct.SDL_HDROutputProperties, i8, ptr, ptr, i32, ptr }

@_this = internal global ptr null, align 8

; Function Attrs: nounwind uwtable
define internal zeroext i1 @SDL_DriverSendsHDRChanges(ptr noundef %0) #0 {
  %2 = alloca ptr, align 8
  store ptr %0, ptr %2, align 8
  %3 = load ptr, ptr %2, align 8
  %4 = getelementptr inbounds nuw %struct.SDL_VideoDevice, ptr %3, i32 0, i32 115
  %5 = load i32, ptr %4, align 4
  %6 = and i32 %5, 64
  %7 = icmp ne i32 %6, 0
  %8 = xor i1 %7, true
  %9 = xor i1 %8, true
  ret i1 %9
}

; Function Attrs: nounwind uwtable
define hidden void @SDL_SetDisplayHDRProperties(ptr noundef %0, ptr noundef %1) #0 {
  %3 = alloca ptr, align 8
  %4 = alloca ptr, align 8
  %5 = alloca i8, align 1
  %6 = alloca ptr, align 8
  store ptr %0, ptr %3, align 8
  store ptr %1, ptr %4, align 8
  call void @llvm.lifetime.start.p0(i64 1, ptr %5) #10
  store i8 0, ptr %5, align 1
  %7 = load ptr, ptr %4, align 8
  %8 = getelementptr inbounds nuw %struct.SDL_HDROutputProperties, ptr %7, i32 0, i32 0
  %9 = load float, ptr %8, align 4
  %10 = load ptr, ptr %3, align 8
  %11 = getelementptr inbounds nuw %struct.SDL_VideoDisplay, ptr %10, i32 0, i32 10
  %12 = getelementptr inbounds nuw %struct.SDL_HDROutputProperties, ptr %11, i32 0, i32 0
  %13 = load float, ptr %12, align 4
  %14 = fcmp une float %9, %13
  br i1 %14, label %15, label %30

15:                                               ; preds = %2
  %16 = load ptr, ptr %4, align 8
  %17 = getelementptr inbounds nuw %struct.SDL_HDROutputProperties, ptr %16, i32 0, i32 0
  %18 = load float, ptr %17, align 4
  %19 = fcmp ogt float %18, 1.000000e+00
  br i1 %19, label %20, label %24

20:                                               ; preds = %15
  %21 = load ptr, ptr %4, align 8
  %22 = getelementptr inbounds nuw %struct.SDL_HDROutputProperties, ptr %21, i32 0, i32 0
  %23 = load float, ptr %22, align 4
  br label %25

24:                                               ; preds = %15
  br label %25

25:                                               ; preds = %24, %20
  %26 = phi float [ %23, %20 ], [ 1.000000e+00, %24 ]
  %27 = load ptr, ptr %3, align 8
  %28 = getelementptr inbounds nuw %struct.SDL_VideoDisplay, ptr %27, i32 0, i32 10
  %29 = getelementptr inbounds nuw %struct.SDL_HDROutputProperties, ptr %28, i32 0, i32 0
  store float %26, ptr %29, align 4
  store i8 1, ptr %5, align 1
  br label %30

30:                                               ; preds = %25, %2
  %31 = load ptr, ptr %4, align 8
  %32 = getelementptr inbounds nuw %struct.SDL_HDROutputProperties, ptr %31, i32 0, i32 1
  %33 = load float, ptr %32, align 4
  %34 = load ptr, ptr %3, align 8
  %35 = getelementptr inbounds nuw %struct.SDL_VideoDisplay, ptr %34, i32 0, i32 10
  %36 = getelementptr inbounds nuw %struct.SDL_HDROutputProperties, ptr %35, i32 0, i32 1
  %37 = load float, ptr %36, align 4
  %38 = fcmp une float %33, %37
  br i1 %38, label %39, label %54

39:                                               ; preds = %30
  %40 = load ptr, ptr %4, align 8
  %41 = getelementptr inbounds nuw %struct.SDL_HDROutputProperties, ptr %40, i32 0, i32 1
  %42 = load float, ptr %41, align 4
  %43 = fcmp ogt float %42, 1.000000e+00
  br i1 %43, label %44, label %48

44:                                               ; preds = %39
  %45 = load ptr, ptr %4, align 8
  %46 = getelementptr inbounds nuw %struct.SDL_HDROutputProperties, ptr %45, i32 0, i32 1
  %47 = load float, ptr %46, align 4
  br label %49

48:                                               ; preds = %39
  br label %49

49:                                               ; preds = %48, %44
  %50 = phi float [ %47, %44 ], [ 1.000000e+00, %48 ]
  %51 = load ptr, ptr %3, align 8
  %52 = getelementptr inbounds nuw %struct.SDL_VideoDisplay, ptr %51, i32 0, i32 10
  %53 = getelementptr inbounds nuw %struct.SDL_HDROutputProperties, ptr %52, i32 0, i32 1
  store float %50, ptr %53, align 4
  store i8 1, ptr %5, align 1
  br label %54

54:                                               ; preds = %49, %30
  %55 = load ptr, ptr %3, align 8
  %56 = getelementptr inbounds nuw %struct.SDL_VideoDisplay, ptr %55, i32 0, i32 10
  %57 = load ptr, ptr %4, align 8
  call void @llvm.memcpy.p0.p0.i64(ptr align 4 %56, ptr align 4 %57, i64 8, i1 false)
  %58 = load i8, ptr %5, align 1, !range !5, !noundef !6
  %59 = trunc i8 %58 to i1
  br i1 %59, label %60, label %90

60:                                               ; preds = %54
  %61 = load ptr, ptr @_this, align 8
  %62 = call zeroext i1 @SDL_DriverSendsHDRChanges(ptr noundef %61)
  br i1 %62, label %90, label %63

63:                                               ; preds = %60
  call void @llvm.lifetime.start.p0(i64 8, ptr %6) #10
  %64 = load ptr, ptr %3, align 8
  %65 = getelementptr inbounds nuw %struct.SDL_VideoDisplay, ptr %64, i32 0, i32 13
  %66 = load ptr, ptr %65, align 8
  %67 = getelementptr inbounds nuw %struct.SDL_VideoDevice, ptr %66, i32 0, i32 105
  %68 = load ptr, ptr %67, align 8
  store ptr %68, ptr %6, align 8
  br label %69

69:                                               ; preds = %85, %63
  %70 = load ptr, ptr %6, align 8
  %71 = icmp ne ptr %70, null
  br i1 %71, label %73, label %72

72:                                               ; preds = %69
  call void @llvm.lifetime.end.p0(i64 8, ptr %6) #10
  br label %89

73:                                               ; preds = %69
  %74 = load ptr, ptr %6, align 8
  %75 = call i32 @SDL_GetDisplayForWindow_REAL(ptr noundef %74)
  %76 = load ptr, ptr %3, align 8
  %77 = getelementptr inbounds nuw %struct.SDL_VideoDisplay, ptr %76, i32 0, i32 0
  %78 = load i32, ptr %77, align 8
  %79 = icmp eq i32 %75, %78
  br i1 %79, label %80, label %84

80:                                               ; preds = %73
  %81 = load ptr, ptr %6, align 8
  %82 = load ptr, ptr %3, align 8
  %83 = getelementptr inbounds nuw %struct.SDL_VideoDisplay, ptr %82, i32 0, i32 10
  call void @SDL_SetWindowHDRProperties(ptr noundef %81, ptr noundef %83, i1 noundef zeroext true)
  br label %84

84:                                               ; preds = %80, %73
  br label %85

85:                                               ; preds = %84
  %86 = load ptr, ptr %6, align 8
  %87 = getelementptr inbounds nuw %struct.SDL_Window, ptr %86, i32 0, i32 62
  %88 = load ptr, ptr %87, align 8
  store ptr %88, ptr %6, align 8
  br label %69, !llvm.loop !21

89:                                               ; preds = %72
  br label %90

90:                                               ; preds = %89, %60, %54
  call void @llvm.lifetime.end.p0(i64 1, ptr %5) #10
  ret void
}