; Function Attrs: nounwind uwtable
define hidden void @SDL_SetDisplayHDRProperties(ptr noundef captures(none) %0, ptr noundef readonly captures(none) %1) local_unnamed_addr #0 {
  %3 = load float, ptr %1, align 4
  %4 = getelementptr inbounds nuw i8, ptr %0, i64 92
  %5 = load float, ptr %4, align 4
  %6 = fcmp une float %3, %5
  br i1 %6, label %7, label %.thread

7:                                                ; preds = %2
  %8 = fcmp ogt float %3, 1.000000e+00
  %9 = select i1 %8, float %3, float 1.000000e+00
  store float %9, ptr %4, align 4
  %10 = getelementptr inbounds nuw i8, ptr %1, i64 4
  %11 = load float, ptr %10, align 4
  %12 = getelementptr inbounds nuw i8, ptr %0, i64 96
  %13 = load float, ptr %12, align 4
  %14 = fcmp une float %11, %13
  br i1 %14, label %.critedge, label %25

.thread:                                          ; preds = %2
  %15 = getelementptr inbounds nuw i8, ptr %1, i64 4
  %16 = load float, ptr %15, align 4
  %17 = getelementptr inbounds nuw i8, ptr %0, i64 96
  %18 = load float, ptr %17, align 4
  %19 = fcmp une float %16, %18
  br i1 %19, label %.critedge, label %.thread22

.thread22:                                        ; preds = %.thread
  %20 = load i64, ptr %1, align 4
  store i64 %20, ptr %4, align 4
  br label %.loopexit

.critedge:                                        ; preds = %.thread, %7
  %21 = phi ptr [ %17, %.thread ], [ %12, %7 ]
  %22 = phi float [ %16, %.thread ], [ %11, %7 ]
  %23 = fcmp ogt float %22, 1.000000e+00
  %24 = select i1 %23, float %22, float 1.000000e+00
  store float %24, ptr %21, align 4
  br label %25

25:                                               ; preds = %7, %.critedge
  %storemerge = load i64, ptr %1, align 4
  store i64 %storemerge, ptr %4, align 4
  %26 = load ptr, ptr @_this, align 8
  %27 = getelementptr i8, ptr %26, i64 908
  %.val = load i32, ptr %27, align 4
  %28 = and i32 %.val, 64
  %.not23 = icmp eq i32 %28, 0
  br i1 %.not23, label %29, label %.loopexit

29:                                               ; preds = %25
  %30 = getelementptr inbounds nuw i8, ptr %0, i64 112
  %31 = load ptr, ptr %30, align 8
  %32 = getelementptr inbounds nuw i8, ptr %31, i64 832
  %.024 = load ptr, ptr %32, align 8
  %.not25 = icmp eq ptr %.024, null
  br i1 %.not25, label %.loopexit, label %.lr.ph

.lr.ph:                                           ; preds = %29, %37
  %.026 = phi ptr [ %.0, %37 ], [ %.024, %29 ]
  %33 = tail call i32 @SDL_GetDisplayForWindow_REAL(ptr noundef nonnull %.026)
  %34 = load i32, ptr %0, align 8
  %35 = icmp eq i32 %33, %34
  br i1 %35, label %36, label %37

36:                                               ; preds = %.lr.ph
  tail call void @SDL_SetWindowHDRProperties(ptr noundef nonnull %.026, ptr noundef nonnull %4, i1 noundef zeroext true)
  br label %37

37:                                               ; preds = %.lr.ph, %36
  %38 = getelementptr inbounds nuw i8, ptr %.026, i64 416
  %.0 = load ptr, ptr %38, align 8
  %.not = icmp eq ptr %.0, null
  br i1 %.not, label %.loopexit, label %.lr.ph, !llvm.loop !20

.loopexit:                                        ; preds = %37, %29, %.thread22, %25
  ret void
}